target datalayout = "e-m:e-p270:32:32-p271:32:32-p272:64:64-i64:64-i128:128-f80:128-n8:16:32:64-S128"
target triple = "x86_64-pc-linux-gnu"

%struct._et_dissector_info = type { ptr }
%struct.bp_creation_ts_t = type { %struct.bp_dtn_time_t, i64 }
%struct.bp_dtn_time_t = type { i64, %struct.nstime_t }
%struct.nstime_t = type { i64, i32 }
%struct.bp_eid_t = type { ptr, i64, %struct._address, ptr, ptr, ptr }
%struct._address = type { i32, i32, ptr, ptr }
%struct.bp_block_primary_t = type { ptr, i64, ptr, ptr, ptr, %struct.bp_creation_ts_t, ptr, ptr, i64, ptr, %struct.security_mark_t }
%struct.security_mark_t = type { ptr, ptr }
%struct.bp_bundle_t = type { i32, i8, %struct.nstime_t, ptr, ptr, ptr, ptr, ptr, ptr, ptr }
%struct._packet_info = type { ptr, ptr, i32, i32, %struct.nstime_t, %struct.nstime_t, %struct.nstime_t, i8, ptr, ptr, ptr, ptr, %struct._address, %struct._address, %struct._address, %struct._address, %struct._address, %struct._address, i32, ptr, i8, [3 x i8], %struct.anon, i32, i32, i32, i32, ptr, i8, ptr, ptr, i16, i16, i32, i32, i16, i32, i32, ptr, ptr, ptr, i8, i8, i16, i16, i16, i32, i16, i16, ptr, ptr, ptr, ptr, ptr, i32, i32 }
%struct.anon = type { i8, [3 x i8] }
%struct._conversation_hash_t = type { ptr, ptr, ptr, i32 }
%struct._frame_data = type <{ i32, i32, i32, i32, i32, [4 x i8], i64, ptr, ptr, ptr, i8, i16, [5 x i8], %struct.nstime_t, %struct.nstime_t, i32, i32 }>

@bp_endp_dissector_info = internal global %struct._et_dissector_info { ptr @bp_endp_get_filter_type }, align 8

; Function Attrs: null_pointer_is_valid sspstrong uwtable
define internal i32 @bp_endp_packet(ptr noundef %0, ptr noundef %1, ptr noundef %2, ptr noundef %3, i32 noundef %4) #2 {
  %6 = alloca ptr, align 8
  %7 = alloca ptr, align 8
  %8 = alloca ptr, align 8
  %9 = alloca ptr, align 8
  %10 = alloca i32, align 4
  %11 = alloca ptr, align 8
  %12 = alloca ptr, align 8
  store ptr %0, ptr %6, align 8
  store ptr %1, ptr %7, align 8
  store ptr %2, ptr %8, align 8
  store ptr %3, ptr %9, align 8
  store i32 %4, ptr %10, align 4
  call void @llvm.lifetime.start.p0(i64 8, ptr %11) #18
  %13 = load ptr, ptr %6, align 8
  store ptr %13, ptr %11, align 8
  call void @llvm.lifetime.start.p0(i64 8, ptr %12) #18
  %14 = load ptr, ptr %9, align 8
  store ptr %14, ptr %12, align 8
  %15 = load i32, ptr %10, align 4
  %16 = load ptr, ptr %11, align 8
  %17 = getelementptr inbounds nuw %struct._conversation_hash_t, ptr %16, i32 0, i32 3
  store i32 %15, ptr %17, align 8
  %18 = load ptr, ptr %12, align 8
  %19 = getelementptr inbounds nuw %struct.bp_bundle_t, ptr %18, i32 0, i32 4
  %20 = load ptr, ptr %19, align 8
  %21 = getelementptr inbounds nuw %struct.bp_block_primary_t, ptr %20, i32 0, i32 3
  %22 = load ptr, ptr %21, align 8
  %23 = getelementptr inbounds nuw %struct.bp_eid_t, ptr %22, i32 0, i32 2
  %24 = getelementptr inbounds nuw %struct._address, ptr %23, i32 0, i32 0
  %25 = load i32, ptr %24, align 8
  %26 = icmp eq i32 %25, 7
  br i1 %26, label %27, label %40

27:                                               ; preds = %5
  %28 = load ptr, ptr %11, align 8
  %29 = load ptr, ptr %12, align 8
  %30 = getelementptr inbounds nuw %struct.bp_bundle_t, ptr %29, i32 0, i32 4
  %31 = load ptr, ptr %30, align 8
  %32 = getelementptr inbounds nuw %struct.bp_block_primary_t, ptr %31, i32 0, i32 3
  %33 = load ptr, ptr %32, align 8
  %34 = getelementptr inbounds nuw %struct.bp_eid_t, ptr %33, i32 0, i32 2
  %35 = load ptr, ptr %7, align 8
  %36 = getelementptr inbounds nuw %struct._packet_info, ptr %35, i32 0, i32 8
  %37 = load ptr, ptr %36, align 8
  %38 = getelementptr inbounds nuw %struct._frame_data, ptr %37, i32 0, i32 2
  %39 = load i32, ptr %38, align 8
  call void @add_endpoint_table_data(ptr noundef %28, ptr noundef %34, i32 noundef 0, i1 noundef zeroext true, i32 noundef 1, i32 noundef %39, ptr noundef @bp_endp_dissector_info, i32 noundef 0)
  br label %40

40:                                               ; preds = %27, %5
  %41 = load ptr, ptr %12, align 8
  %42 = getelementptr inbounds nuw %struct.bp_bundle_t, ptr %41, i32 0, i32 4
  %43 = load ptr, ptr %42, align 8
  %44 = getelementptr inbounds nuw %struct.bp_block_primary_t, ptr %43, i32 0, i32 2
  %45 = load ptr, ptr %44, align 8
  %46 = getelementptr inbounds nuw %struct.bp_eid_t, ptr %45, i32 0, i32 2
  %47 = getelementptr inbounds nuw %struct._address, ptr %46, i32 0, i32 0
  %48 = load i32, ptr %47, align 8
  %49 = icmp eq i32 %48, 7
  br i1 %49, label %50, label %63

50:                                               ; preds = %40
  %51 = load ptr, ptr %11, align 8
  %52 = load ptr, ptr %12, align 8
  %53 = getelementptr inbounds nuw %struct.bp_bundle_t, ptr %52, i32 0, i32 4
  %54 = load ptr, ptr %53, align 8
  %55 = getelementptr inbounds nuw %struct.bp_block_primary_t, ptr %54, i32 0, i32 2
  %56 = load ptr, ptr %55, align 8
  %57 = getelementptr inbounds nuw %struct.bp_eid_t, ptr %56, i32 0, i32 2
  %58 = load ptr, ptr %7, align 8
  %59 = getelementptr inbounds nuw %struct._packet_info, ptr %58, i32 0, i32 8
  %60 = load ptr, ptr %59, align 8
  %61 = getelementptr inbounds nuw %struct._frame_data, ptr %60, i32 0, i32 2
  %62 = load i32, ptr %61, align 8
  call void @add_endpoint_table_data(ptr noundef %51, ptr noundef %57, i32 noundef 0, i1 noundef zeroext false, i32 noundef 1, i32 noundef %62, ptr noundef @bp_endp_dissector_info, i32 noundef 0)
  br label %63

63:                                               ; preds = %50, %40
  call void @llvm.lifetime.end.p0(i64 8, ptr %12) #18
  call void @llvm.lifetime.end.p0(i64 8, ptr %11) #18
  ret i32 1
}