; Function Attrs: null_pointer_is_valid sspstrong uwtable
define internal noundef i32 @bp_endp_packet(ptr noundef initializes((24, 28)) %0, ptr noundef readonly captures(none) %1, ptr readnone captures(none) %2, ptr noundef readonly captures(none) %3, i32 noundef %4) #2 {
  %6 = getelementptr inbounds nuw i8, ptr %0, i64 24
  store i32 %4, ptr %6, align 8
  %7 = getelementptr inbounds nuw i8, ptr %3, i64 32
  %8 = load ptr, ptr %7, align 8
  %9 = getelementptr inbounds nuw i8, ptr %8, i64 24
  %10 = load ptr, ptr %9, align 8
  %11 = getelementptr inbounds nuw i8, ptr %10, i64 16
  %12 = load i32, ptr %11, align 8
  %13 = icmp eq i32 %12, 7
  br i1 %13, label %14, label %19

14:                                               ; preds = %5
  %15 = getelementptr inbounds nuw i8, ptr %1, i64 80
  %16 = load ptr, ptr %15, align 8
  %17 = getelementptr inbounds nuw i8, ptr %16, i64 8
  %18 = load i32, ptr %17, align 8
  tail call void @add_endpoint_table_data(ptr noundef %0, ptr noundef nonnull %11, i32 noundef 0, i1 noundef zeroext true, i32 noundef 1, i32 noundef %18, ptr noundef nonnull @bp_endp_dissector_info, i32 noundef 0)
  %.pre = load ptr, ptr %7, align 8
  br label %19

19:                                               ; preds = %14, %5
  %20 = phi ptr [ %.pre, %14 ], [ %8, %5 ]
  %21 = getelementptr inbounds nuw i8, ptr %20, i64 16
  %22 = load ptr, ptr %21, align 8
  %23 = getelementptr inbounds nuw i8, ptr %22, i64 16
  %24 = load i32, ptr %23, align 8
  %25 = icmp eq i32 %24, 7
  br i1 %25, label %26, label %31

26:                                               ; preds = %19
  %27 = getelementptr inbounds nuw i8, ptr %1, i64 80
  %28 = load ptr, ptr %27, align 8
  %29 = getelementptr inbounds nuw i8, ptr %28, i64 8
  %30 = load i32, ptr %29, align 8
  tail call void @add_endpoint_table_data(ptr noundef %0, ptr noundef nonnull %23, i32 noundef 0, i1 noundef zeroext false, i32 noundef 1, i32 noundef %30, ptr noundef nonnull @bp_endp_dissector_info, i32 noundef 0)
  br label %31

31:                                               ; preds = %26, %19
  ret i32 1
}